target datalayout = "e-m:e-p270:32:32-p271:32:32-p272:64:64-i64:64-i128:128-f80:128-n8:16:32:64-S128"
target triple = "x86_64-pc-linux-gnu"

%struct.SurfaceDataRasInfo = type { %struct.SurfaceDataBounds, ptr, i32, i32, i32, i32, ptr, ptr, ptr, ptr, ptr, ptr, i32, %union.anon.0 }
%struct.SurfaceDataBounds = type { i32, i32, i32, i32 }
%union.anon.0 = type { ptr, [56 x i8] }

; Function Attrs: nounwind uwtable
define hidden void @Any4ByteSetParallelogram(ptr noundef %0, i32 noundef %1, i32 noundef %2, i32 noundef %3, i32 noundef %4, i64 noundef %5, i64 noundef %6, i64 noundef %7, i64 noundef %8, i32 noundef %9, ptr noundef %10, ptr noundef %11) #0 {
  %13 = alloca ptr, align 8
  %14 = alloca i32, align 4
  %15 = alloca i32, align 4
  %16 = alloca i32, align 4
  %17 = alloca i32, align 4
  %18 = alloca i64, align 8
  %19 = alloca i64, align 8
  %20 = alloca i64, align 8
  %21 = alloca i64, align 8
  %22 = alloca i32, align 4
  %23 = alloca ptr, align 8
  %24 = alloca ptr, align 8
  %25 = alloca i8, align 1
  %26 = alloca i8, align 1
  %27 = alloca i8, align 1
  %28 = alloca i8, align 1
  %29 = alloca i32, align 4
  %30 = alloca ptr, align 8
  %31 = alloca i32, align 4
  %32 = alloca i32, align 4
  store ptr %0, ptr %13, align 8
  store i32 %1, ptr %14, align 4
  store i32 %2, ptr %15, align 4
  store i32 %3, ptr %16, align 4
  store i32 %4, ptr %17, align 4
  store i64 %5, ptr %18, align 8
  store i64 %6, ptr %19, align 8
  store i64 %7, ptr %20, align 8
  store i64 %8, ptr %21, align 8
  store i32 %9, ptr %22, align 4
  store ptr %10, ptr %23, align 8
  store ptr %11, ptr %24, align 8
  %33 = load ptr, ptr %13, align 8
  %34 = getelementptr inbounds %struct.SurfaceDataRasInfo, ptr %33, i32 0, i32 4
  %35 = load i32, ptr %34, align 8
  store i32 %35, ptr %29, align 4
  %36 = load ptr, ptr %13, align 8
  %37 = getelementptr inbounds %struct.SurfaceDataRasInfo, ptr %36, i32 0, i32 1
  %38 = load ptr, ptr %37, align 8
  %39 = ptrtoint ptr %38 to i64
  %40 = load i32, ptr %15, align 4
  %41 = sext i32 %40 to i64
  %42 = load i32, ptr %29, align 4
  %43 = sext i32 %42 to i64
  %44 = mul nsw i64 %41, %43
  %45 = add nsw i64 %44, 0
  %46 = add nsw i64 %39, %45
  %47 = inttoptr i64 %46 to ptr
  store ptr %47, ptr %30, align 8
  br label %48

48:                                               ; preds = %12
  %49 = load i32, ptr %22, align 4
  %50 = trunc i32 %49 to i8
  store i8 %50, ptr %25, align 1
  %51 = load i32, ptr %22, align 4
  %52 = ashr i32 %51, 8
  %53 = trunc i32 %52 to i8
  store i8 %53, ptr %26, align 1
  %54 = load i32, ptr %22, align 4
  %55 = ashr i32 %54, 16
  %56 = trunc i32 %55 to i8
  store i8 %56, ptr %27, align 1
  %57 = load i32, ptr %22, align 4
  %58 = ashr i32 %57, 24
  %59 = trunc i32 %58 to i8
  store i8 %59, ptr %28, align 1
  br label %60

60:                                               ; preds = %48
  br label %61

61:                                               ; preds = %121, %60
  %62 = load i32, ptr %15, align 4
  %63 = load i32, ptr %17, align 4
  %64 = icmp slt i32 %62, %63
  br i1 %64, label %65, label %136

65:                                               ; preds = %61
  %66 = load i64, ptr %18, align 8
  %67 = ashr i64 %66, 32
  %68 = trunc i64 %67 to i32
  store i32 %68, ptr %31, align 4
  %69 = load i64, ptr %20, align 8
  %70 = ashr i64 %69, 32
  %71 = trunc i64 %70 to i32
  store i32 %71, ptr %32, align 4
  %72 = load i32, ptr %31, align 4
  %73 = load i32, ptr %14, align 4
  %74 = icmp slt i32 %72, %73
  br i1 %74, label %75, label %77

75:                                               ; preds = %65
  %76 = load i32, ptr %14, align 4
  store i32 %76, ptr %31, align 4
  br label %77

77:                                               ; preds = %75, %65
  %78 = load i32, ptr %32, align 4
  %79 = load i32, ptr %16, align 4
  %80 = icmp sgt i32 %78, %79
  br i1 %80, label %81, label %83

81:                                               ; preds = %77
  %82 = load i32, ptr %16, align 4
  store i32 %82, ptr %32, align 4
  br label %83

83:                                               ; preds = %81, %77
  br label %84

84:                                               ; preds = %118, %83
  %85 = load i32, ptr %31, align 4
  %86 = load i32, ptr %32, align 4
  %87 = icmp slt i32 %85, %86
  br i1 %87, label %88, label %121

88:                                               ; preds = %84
  br label %89

89:                                               ; preds = %88
  %90 = load i8, ptr %25, align 1
  %91 = load ptr, ptr %30, align 8
  %92 = load i32, ptr %31, align 4
  %93 = mul nsw i32 4, %92
  %94 = add nsw i32 %93, 0
  %95 = sext i32 %94 to i64
  %96 = getelementptr inbounds i8, ptr %91, i64 %95
  store i8 %90, ptr %96, align 1
  %97 = load i8, ptr %26, align 1
  %98 = load ptr, ptr %30, align 8
  %99 = load i32, ptr %31, align 4
  %100 = mul nsw i32 4, %99
  %101 = add nsw i32 %100, 1
  %102 = sext i32 %101 to i64
  %103 = getelementptr inbounds i8, ptr %98, i64 %102
  store i8 %97, ptr %103, align 1
  %104 = load i8, ptr %27, align 1
  %105 = load ptr, ptr %30, align 8
  %106 = load i32, ptr %31, align 4
  %107 = mul nsw i32 4, %106
  %108 = add nsw i32 %107, 2
  %109 = sext i32 %108 to i64
  %110 = getelementptr inbounds i8, ptr %105, i64 %109
  store i8 %104, ptr %110, align 1
  %111 = load i8, ptr %28, align 1
  %112 = load ptr, ptr %30, align 8
  %113 = load i32, ptr %31, align 4
  %114 = mul nsw i32 4, %113
  %115 = add nsw i32 %114, 3
  %116 = sext i32 %115 to i64
  %117 = getelementptr inbounds i8, ptr %112, i64 %116
  store i8 %111, ptr %117, align 1
  br label %118

118:                                              ; preds = %89
  %119 = load i32, ptr %31, align 4
  %120 = add nsw i32 %119, 1
  store i32 %120, ptr %31, align 4
  br label %84, !llvm.loop !12

121:                                              ; preds = %84
  %122 = load ptr, ptr %30, align 8
  %123 = ptrtoint ptr %122 to i64
  %124 = load i32, ptr %29, align 4
  %125 = sext i32 %124 to i64
  %126 = add nsw i64 %123, %125
  %127 = inttoptr i64 %126 to ptr
  store ptr %127, ptr %30, align 8
  %128 = load i64, ptr %19, align 8
  %129 = load i64, ptr %18, align 8
  %130 = add nsw i64 %129, %128
  store i64 %130, ptr %18, align 8
  %131 = load i64, ptr %21, align 8
  %132 = load i64, ptr %20, align 8
  %133 = add nsw i64 %132, %131
  store i64 %133, ptr %20, align 8
  %134 = load i32, ptr %15, align 4
  %135 = add nsw i32 %134, 1
  store i32 %135, ptr %15, align 4
  br label %61, !llvm.loop !13

136:                                              ; preds = %61
  ret void
}