; Function Attrs: nofree norecurse nosync nounwind memory(write, argmem: readwrite, inaccessiblemem: none) uwtable
define hidden void @Any4ByteSetParallelogram(ptr nocapture noundef readonly %0, i32 noundef %1, i32 noundef %2, i32 noundef %3, i32 noundef %4, i64 noundef %5, i64 noundef %6, i64 noundef %7, i64 noundef %8, i32 noundef %9, ptr nocapture readnone %10, ptr nocapture readnone %11) #0 {
  %13 = getelementptr inbounds i8, ptr %0, i64 32
  %14 = load i32, ptr %13, align 8
  %15 = sext i32 %14 to i64
  %16 = trunc i32 %9 to i8
  %17 = lshr i32 %9, 8
  %18 = trunc i32 %17 to i8
  %19 = lshr i32 %9, 16
  %20 = trunc i32 %19 to i8
  %21 = lshr i32 %9, 24
  %22 = trunc nuw i32 %21 to i8
  %23 = icmp slt i32 %2, %4
  br i1 %23, label %.lr.ph56.preheader, label %._crit_edge57

.lr.ph56.preheader:                               ; preds = %12
  %24 = sext i32 %2 to i64
  %25 = mul nsw i64 %15, %24
  %26 = getelementptr inbounds i8, ptr %0, i64 16
  %27 = load ptr, ptr %26, align 8
  %28 = ptrtoint ptr %27 to i64
  %29 = add nsw i64 %25, %28
  %30 = sext i32 %1 to i64
  br label %.lr.ph56

.lr.ph56:                                         ; preds = %.lr.ph56.preheader, %._crit_edge
  %.040.in53 = phi i64 [ %47, %._crit_edge ], [ %29, %.lr.ph56.preheader ]
  %.04152 = phi i32 [ %50, %._crit_edge ], [ %2, %.lr.ph56.preheader ]
  %.04251 = phi i64 [ %48, %._crit_edge ], [ %5, %.lr.ph56.preheader ]
  %.04350 = phi i64 [ %49, %._crit_edge ], [ %7, %.lr.ph56.preheader ]
  %31 = lshr i64 %.04251, 32
  %32 = trunc nuw i64 %31 to i32
  %.04054 = inttoptr i64 %.040.in53 to ptr
  %33 = lshr i64 %.04350, 32
  %34 = trunc nuw i64 %33 to i32
  %spec.select = tail call i32 @llvm.smax.i32(i32 %32, i32 %1)
  %.0 = tail call i32 @llvm.smin.i32(i32 %34, i32 %3)
  %35 = icmp slt i32 %spec.select, %.0
  br i1 %35, label %.lr.ph.preheader, label %._crit_edge

.lr.ph.preheader:                                 ; preds = %.lr.ph56
  %36 = ashr i64 %.04251, 32
  %smax = tail call i64 @llvm.smax.i64(i64 %30, i64 %36)
  %37 = sext i32 %.0 to i64
  br label %.lr.ph

.lr.ph:                                           ; preds = %.lr.ph.preheader, %.lr.ph
  %indvars.iv = phi i64 [ %smax, %.lr.ph.preheader ], [ %indvars.iv.next, %.lr.ph ]
  %38 = shl nsw i64 %indvars.iv, 2
  %39 = getelementptr inbounds i8, ptr %.04054, i64 %38
  store i8 %16, ptr %39, align 1
  %40 = or disjoint i64 %38, 1
  %41 = getelementptr inbounds i8, ptr %.04054, i64 %40
  store i8 %18, ptr %41, align 1
  %42 = or disjoint i64 %38, 2
  %43 = getelementptr inbounds i8, ptr %.04054, i64 %42
  store i8 %20, ptr %43, align 1
  %44 = or disjoint i64 %38, 3
  %45 = getelementptr inbounds i8, ptr %.04054, i64 %44
  store i8 %22, ptr %45, align 1
  %indvars.iv.next = add nsw i64 %indvars.iv, 1
  %46 = icmp slt i64 %indvars.iv.next, %37
  br i1 %46, label %.lr.ph, label %._crit_edge, !llvm.loop !12

._crit_edge:                                      ; preds = %.lr.ph, %.lr.ph56
  %47 = add nsw i64 %.040.in53, %15
  %48 = add nsw i64 %.04251, %6
  %49 = add nsw i64 %.04350, %8
  %50 = add nsw i32 %.04152, 1
  %exitcond.not = icmp eq i32 %50, %4
  br i1 %exitcond.not, label %._crit_edge57, label %.lr.ph56, !llvm.loop !13

._crit_edge57:                                    ; preds = %._crit_edge, %12
  ret void
}